target datalayout = "e-m:e-p270:32:32-p271:32:32-p272:64:64-i64:64-i128:128-f80:128-n8:16:32:64-S128"
target triple = "x86_64-pc-linux-gnu"

%"class.icu_77::UCharsDictionaryMatcher" = type { %"class.icu_77::DictionaryMatcher", ptr, ptr }
%"class.icu_77::DictionaryMatcher" = type { ptr }

; Function Attrs: mustprogress nounwind uwtable
define void @_ZN6icu_7717DictionaryMatcherD2Ev(ptr noundef nonnull align 8 dereferenceable(8) %0) unnamed_addr #0 align 2 {
  %2 = alloca ptr, align 8
  store ptr %0, ptr %2, align 8, !tbaa !3
  ret void
}

; Function Attrs: mustprogress nounwind uwtable
define void @_ZN6icu_7723UCharsDictionaryMatcherD2Ev(ptr noundef nonnull align 8 dereferenceable(24) %0) unnamed_addr #0 align 2 personality ptr @__gxx_personality_v0 {
  %2 = alloca ptr, align 8
  store ptr %0, ptr %2, align 8, !tbaa !8
  %3 = load ptr, ptr %2, align 8
  store ptr getelementptr inbounds inrange(-16, 32) ({ [6 x ptr] }, ptr @_ZTVN6icu_7723UCharsDictionaryMatcherE, i32 0, i32 0, i32 2), ptr %3, align 8, !tbaa !10
  %4 = getelementptr inbounds nuw %"class.icu_77::UCharsDictionaryMatcher", ptr %3, i32 0, i32 2
  %5 = load ptr, ptr %4, align 8, !tbaa !12
  invoke void @udata_close_77(ptr noundef %5)
          to label %6 unwind label %7

6:                                                ; preds = %1
  call void @_ZN6icu_7717DictionaryMatcherD2Ev(ptr noundef nonnull align 8 dereferenceable(8) %3) #11
  ret void

7:                                                ; preds = %1
  %8 = landingpad { ptr, i32 }
          catch ptr null
  %9 = extractvalue { ptr, i32 } %8, 0
  call void @__clang_call_terminate(ptr %9) #10
  unreachable
}